Certificate:
    Data:
        Version: 3 (0x2)
        Serial Number: 1400051330 (0x53731682)
    Signature Algorithm: sha256WithRSAEncryption
        Issuer: C=BR, ST=Distrito Federal, L=Brasilia, O=MP, OU=PEN, CN=Interoperabilidade
        Validity
            Not Before: Jan 26 18:38:54 2022 GMT
            Not After : Jan 24 18:38:54 2032 GMT
        Subject: CN=AdvocaciaGeraldaUnio
        Subject Public Key Info:
            Public Key Algorithm: rsaEncryption
                Public-Key: (2048 bit)
                Modulus:
                    00:a6:2b:5d:7c:c6:a1:19:07:2d:cd:5b:a4:02:c6:
                    59:da:49:79:fe:51:0c:c5:7e:71:47:96:e5:31:74:
                    03:50:1b:85:61:7e:e1:e9:cf:a7:3c:56:b1:60:be:
                    23:1d:07:73:e7:ea:5a:71:42:6b:73:85:12:72:d8:
                    3e:80:42:f9:66:7a:7d:b0:af:a8:74:a2:34:4e:77:
                    38:da:9e:23:26:d9:32:1e:78:a1:51:9c:a2:e5:48:
                    36:4c:dd:c6:61:25:fa:02:7f:a2:58:17:1b:b7:83:
                    59:fa:c3:5d:2d:04:5c:d0:3f:bd:75:3d:82:e9:fa:
                    24:b9:45:6d:c0:a7:f6:dd:a8:b9:22:82:3f:ea:bf:
                    73:7c:e9:fa:b8:6c:da:19:be:c8:fc:e1:b8:62:b2:
                    d4:06:19:ed:e8:e2:f8:aa:77:9e:c0:8b:e6:d4:a7:
                    ad:41:fd:34:66:7f:95:ad:64:66:97:57:bd:c3:06:
                    da:71:b1:da:e1:72:e3:7f:41:ce:72:8e:7d:81:57:
                    a6:99:66:89:e2:46:45:60:eb:a1:84:89:55:88:41:
                    04:00:54:06:7e:24:40:b3:3f:d4:54:70:e4:5a:ea:
                    f8:f4:f1:7c:dc:59:18:20:bb:38:18:e9:67:37:af:
                    63:90:81:6e:bc:c5:bf:58:a9:90:97:bc:b0:2d:fd:
                    0e:51
                Exponent: 65537 (0x10001)
        X509v3 extensions:
            X509v3 Basic Constraints:
                CA:FALSE
            Netscape Comment:
                OpenSSL Generated Certificate
            X509v3 Subject Key Identifier:
                E5:3A:C8:A4:66:7E:08:06:4F:E3:59:D0:94:EE:4C:66:25:84:E9:62
            X509v3 Authority Key Identifier:
                keyid:98:DD:F8:EE:BB:D3:71:38:E3:61:F9:A4:1E:AB:93:A3:60:2D:ED:BB

    Signature Algorithm: sha256WithRSAEncryption
         ae:46:5b:67:8b:d1:82:d3:f7:78:57:bf:3a:d6:cc:4c:03:9f:
         be:a7:0c:a4:7e:c7:a5:91:ce:94:90:80:6d:7b:84:44:c2:7a:
         0e:7b:09:41:d9:36:f4:2c:e3:87:02:2a:25:67:6c:03:83:3d:
         1c:ae:cb:b9:c1:5a:fd:66:9e:5d:ce:1c:b0:71:2c:39:26:d5:
         5e:ef:3f:3b:4c:2d:ce:e0:59:f3:94:c6:f4:33:0a:34:ca:83:
         36:b6:53:9f:80:70:10:c6:1d:5a:a8:fb:73:10:11:65:dd:0d:
         48:86:da:e8:6c:67:ca:b0:c9:f1:98:88:91:9f:a6:ec:36:26:
         f2:63:26:2f:73:cf:07:90:10:e8:8e:9e:3c:e5:de:d3:0a:a6:
         e3:63:64:bf:15:56:79:80:36:63:e2:10:10:43:15:6d:d3:5d:
         11:73:5b:8e:f8:11:7b:b4:16:2f:57:e2:b2:7c:07:92:6c:de:
         f2:2a:65:d7:da:64:66:74:1f:1b:11:2d:af:aa:90:78:3e:70:
         e1:2f:0b:aa:40:79:62:7b:de:53:ae:57:bb:fe:ba:c4:fb:d0:
         4a:55:e4:47:97:f1:f0:f0:c8:11:95:5b:21:af:b5:e4:8e:0a:
         8a:28:d9:ac:b3:12:87:e6:ee:16:73:74:bc:22:63:f5:6b:f1:
         c6:7d:3e:90
-----BEGIN CERTIFICATE-----
MIIDizCCAnOgAwIBAgIEU3MWgjANBgkqhkiG9w0BAQsFADBzMQswCQYDVQQGEwJC
UjEZMBcGA1UECAwQRGlzdHJpdG8gRmVkZXJhbDERMA8GA1UEBwwIQnJhc2lsaWEx
CzAJBgNVBAoMAk1QMQwwCgYDVQQLDANQRU4xGzAZBgNVBAMMEkludGVyb3BlcmFi
aWxpZGFkZTAeFw0yMjAxMjYxODM4NTRaFw0zMjAxMjQxODM4NTRaMB8xHTAbBgNV
BAMTFEFkdm9jYWNpYUdlcmFsZGFVbmlvMIIBIjANBgkqhkiG9w0BAQEFAAOCAQ8A
MIIBCgKCAQEApitdfMahGQctzVukAsZZ2kl5/lEMxX5xR5blMXQDUBuFYX7h6c+n
PFaxYL4jHQdz5+pacUJrc4USctg+gEL5Znp9sK+odKI0Tnc42p4jJtkyHnihUZyi
5Ug2TN3GYSX6An+iWBcbt4NZ+sNdLQRc0D+9dT2C6fokuUVtwKf23ai5IoI/6r9z
fOn6uGzaGb7I/OG4YrLUBhnt6OL4qneewIvm1KetQf00Zn+VrWRml1e9wwbacbHa
4XLjf0HOco59gVemmWaJ4kZFYOuhhIlViEEEAFQGfiRAsz/UVHDkWur49PF83FkY
ILs4GOlnN69jkIFuvMW/WKmQl7ywLf0OUQIDAQABo3sweTAJBgNVHRMEAjAAMCwG
CWCGSAGG+EIBDQQfFh1PcGVuU1NMIEdlbmVyYXRlZCBDZXJ0aWZpY2F0ZTAdBgNV
HQ4EFgQU5TrIpGZ+CAZP41nQlO5MZiWE6WIwHwYDVR0jBBgwFoAUmN347rvTcTjj
YfmkHquTo2At7bswDQYJKoZIhvcNAQELBQADggEBAK5GW2eL0YLT93hXvzrWzEwD
n76nDKR+x6WRzpSQgG17hETCeg57CUHZNvQs44cCKiVnbAODPRyuy7nBWv1mnl3O
HLBxLDkm1V7vPztMLc7gWfOUxvQzCjTKgza2U5+AcBDGHVqo+3MQEWXdDUiG2uhs
Z8qwyfGYiJGfpuw2JvJjJi9zzweQEOiOnjzl3tMKpuNjZL8VVnmANmPiEBBDFW3T
XRFzW474EXu0Fi9X4rJ8B5Js3vIqZdfaZGZ0HxsRLa+qkHg+cOEvC6pAeWJ73lOu
V7v+usT70EpV5EeX8fDwyBGVWyGvteSOCooo2ayzEofm7hZzdLwiY/Vr8cZ9PpA=
-----END CERTIFICATE-----
-----BEGIN RSA PRIVATE KEY-----
Proc-Type: 4,ENCRYPTED
DEK-Info: DES-EDE3-CBC,88DA2A1D8B6CFAE5

p2KVp0zzPpeosyc4bgqZCiBM4GLFtmoDArseRwcdN5LZEvy/XaFAGNTM679dntRw
7KDgAAKpCcObXpc9qxwXGfG7MjWWVsTDuIVTz71O/vgLsEjx0aWLK2IMHSp9/zkJ
GWQodn7YLGzqG2Bj25p8/WYL+owMN9k1I2bKpBFyfzZoYtEuNgqck3w09RVTMF6i
rN0gwGBhZV/wHFYrNRiRJzSqu/9U70K+mO8hsl0+oYle6NY9cYvHzEIp8O1hsAmj
KpuwVIm4TCAxzXCMA4OUTB1U7rYVrGTG25JguR5t0yR4FKeW4g+CbiuY8wrA4XDo
lsML+dwy8Z+MzQbymaHgNTSMGb6UORpkN3LBDy5vweq2d5WI2uvr2g+ENn96wAsH
T1GpgeLvIvAT1bqTbadpYtmLCyElOP0G1CyhSoHLrcnS1WM0AAXUa0YYcLtLNAiG
dw1vAoZBww97UtAX25YzKPK+jrVODbj8L/FFD8o20wcYG95VB3Lh5b3gDwrXUw/k
yiu8L3RThAuu9u/Sx0ZCYYsBzG1RSp8xH1zIpTdZO3/WquqYrk712Ic33sUiweui
6IGvoOHIKFeUY4qWvN0nLIB7dXTun0cdRhC26FiOswin0uTMSqgkw96j1xrjLj00
NRX4LZF6g5tsaXh8mzV3KSB/53CciArIZgcAAB1TmWL6ePyvNKf6u13rMEVc8WB+
5t0aFzU5q1G6hDUKZuwTYaurQp7FDno6vuxwsHBT8Z6v8TfmhobfZEEG/x8W96rP
jSZqZ801ndsAuV9/rDB9J9WnFAmRZyqu39+FH3eGEQh+lcpAPjxjVXip6iroQUkV
lQLxirhUO+ypAtsM8Q9X9ivHnSFtvf1qtY9gdpun71wSltawe40CgzIWfFNowbcO
/fGXt3L/mv+PyoBUXm751mxqU/gf/UsAFsgqLFGaJp9VKND8ocTyElyINAbqyHEm
vKyitKB5mJCeI1TkjdfbfftUIX51twZijnA66tNq2A/vKMUvF02SQPyXsmXfLn59
ZJ5VkaiZHkQo3igePTzOTV4ldoCNWjpGpr4VmSRnfIK08w8NrWG38cWaOKAJAVzW
e1p3gmbOLYdU51XIBfDyA6zKXSiiiQcl64QY5Vja2ZGNRWH0Z0xoafUwggpCJlQC
y5XR7xlePTSppRT+On+KHWXhdMjGBgONDZOpFxC73BODqAgpCop9QzGpzVsKianm
ScgUtVba629BeaEhlje1+oDD0GMho118/RSpSSX50lsQLLYnGjLZwHIF68sDWFeH
QUzGQ05BsQQZ67P+GYhkO3bN4Q3Xm3SvulZMRLNTitVcdvCSvXIuk7b7w3vnKMbr
FDCJ/SusKOaDcR3hl4Wj3RCFf5OWc6bUESCp7kOov9vmenc1WDNkc5mwb2N4Ou9O
pOTdLIF6PldfFRXhl0IeSjnNiEu18te4k0juNnQipQOJO3bAU5QNxY/hxW619AvU
fDgClEwnT6dirUmVCSv25ilCnHWdnAWIEdv92SQu0aJG5lQLIImIrjaUF1+VjyOd
/EtuIjID86UelF+51T3N7cZEZRShk6nT4ukWtZq2JzfnCrMIit/HFA==
-----END RSA PRIVATE KEY-----
